target datalayout = "e-m:e-p270:32:32-p271:32:32-p272:64:64-i64:64-i128:128-f80:128-n8:16:32:64-S128"
target triple = "x86_64-pc-linux-gnu"

@rb_eRuntimeError = external global i64, align 8
@group_blocking = internal global i32 0, align 4
@.str.222 = private unnamed_addr constant [25 x i8] c"parallel group iteration\00", align 1

; Function Attrs: inlinehint nounwind sspstrong memory(argmem: readwrite, inaccessiblemem: readwrite) uwtable
define internal i32 @rbimpl_atomic_cas(ptr noundef nonnull %0, i32 noundef %1, i32 noundef %2) #11 {
  %4 = alloca ptr, align 8
  %5 = alloca i32, align 4
  %6 = alloca i32, align 4
  %7 = alloca i32, align 4
  %8 = alloca i8, align 1
  store ptr %0, ptr %4, align 8, !tbaa !44
  store i32 %1, ptr %5, align 4, !tbaa !15
  store i32 %2, ptr %6, align 4, !tbaa !15
  %9 = load ptr, ptr %4, align 8, !tbaa !44
  %10 = load i32, ptr %6, align 4, !tbaa !15
  store i32 %10, ptr %7, align 4, !tbaa !15
  %11 = load i32, ptr %5, align 4
  %12 = load i32, ptr %7, align 4
  %13 = cmpxchg volatile ptr %9, i32 %11, i32 %12 seq_cst seq_cst, align 4
  %14 = extractvalue { i32, i1 } %13, 0
  %15 = extractvalue { i32, i1 } %13, 1
  br i1 %15, label %17, label %16

16:                                               ; preds = %3
  store i32 %14, ptr %5, align 4
  br label %17

17:                                               ; preds = %16, %3
  %18 = zext i1 %15 to i8
  store i8 %18, ptr %8, align 1, !tbaa !23
  %19 = load i32, ptr %5, align 4, !tbaa !15
  ret i32 %19
}

; Function Attrs: nounwind sspstrong uwtable
define internal void @each_group() #0 {
  %1 = call i32 @rbimpl_atomic_cas(ptr noundef @group_blocking, i32 noundef 0, i32 noundef 1) #24
  %2 = icmp ne i32 %1, 0
  br i1 %2, label %3, label %5

3:                                                ; preds = %0
  %4 = load i64, ptr @rb_eRuntimeError, align 8, !tbaa !6
  call void (i64, ptr, ...) @rb_raise(i64 noundef %4, ptr noundef @.str.222) #22
  unreachable

5:                                                ; preds = %0
  %6 = call i64 @rb_ensure(ptr noundef @group_iterate, i64 noundef 0, ptr noundef @group_ensure, i64 noundef 0)
  ret void
}

; Function Attrs: nounwind sspstrong uwtable
define internal i64 @etc_group(i64 noundef %0) #0 {
  %2 = alloca i64, align 8
  %3 = alloca i64, align 8
  %4 = alloca ptr, align 8
  %5 = alloca i32, align 4
  store i64 %0, ptr %3, align 8, !tbaa !6
  call void @llvm.lifetime.start.p0(i64 8, ptr %4) #19
  %6 = call i32 @rb_block_given_p()
  %7 = icmp ne i32 %6, 0
  br i1 %7, label %8, label %9

8:                                                ; preds = %1
  call void @each_group()
  br label %16

9:                                                ; preds = %1
  %10 = call ptr @getgrent()
  store ptr %10, ptr %4, align 8, !tbaa !21
  %11 = icmp ne ptr %10, null
  br i1 %11, label %12, label %15

12:                                               ; preds = %9
  %13 = load ptr, ptr %4, align 8, !tbaa !21
  %14 = call i64 @setup_group(ptr noundef %13)
  store i64 %14, ptr %2, align 8
  store i32 1, ptr %5, align 4
  br label %17

15:                                               ; preds = %9
  br label %16

16:                                               ; preds = %15, %8
  store i64 4, ptr %2, align 8
  store i32 1, ptr %5, align 4
  br label %17

17:                                               ; preds = %16, %12
  call void @llvm.lifetime.end.p0(i64 8, ptr %4) #19
  %18 = load i64, ptr %2, align 8
  ret i64 %18
}