; Function Attrs: nounwind sspstrong uwtable
define internal i64 @etc_group(i64 %0) #0 {
  %2 = tail call i32 @rb_block_given_p() #13
  %.not = icmp eq i32 %2, 0
  br i1 %.not, label %8, label %3

3:                                                ; preds = %1
  %4 = cmpxchg volatile ptr @group_blocking, i32 0, i32 1 seq_cst seq_cst, align 4
  %.not.i = extractvalue { i32, i1 } %4, 1
  br i1 %.not.i, label %each_group.exit, label %5

5:                                                ; preds = %3
  %6 = load i64, ptr @rb_eRuntimeError, align 8, !tbaa !6
  tail call void (i64, ptr, ...) @rb_raise(i64 noundef %6, ptr noundef nonnull @.str.222) #15
  unreachable

each_group.exit:                                  ; preds = %3
  %7 = tail call i64 @rb_ensure(ptr noundef nonnull @group_iterate, i64 noundef 0, ptr noundef nonnull @group_ensure, i64 noundef 0) #13
  br label %12

8:                                                ; preds = %1
  %9 = tail call ptr @getgrent() #13
  %.not2 = icmp eq ptr %9, null
  br i1 %.not2, label %12, label %10

10:                                               ; preds = %8
  %11 = tail call fastcc i64 @setup_group(ptr noundef %9)
  br label %12

12:                                               ; preds = %each_group.exit, %8, %10
  %.0 = phi i64 [ %11, %10 ], [ 4, %8 ], [ 4, %each_group.exit ]
  ret i64 %.0
}